target datalayout = "e-m:e-p270:32:32-p271:32:32-p272:64:64-i64:64-i128:128-f80:128-n8:16:32:64-S128"
target triple = "x86_64-pc-linux-gnu"

%struct.RanState = type { [4 x i64] }

@.str.31 = private unnamed_addr constant [26 x i8] c"wrong number of arguments\00", align 1
@.str.32 = private unnamed_addr constant [18 x i8] c"interval is empty\00", align 1

; Function Attrs: nounwind uwtable
define internal i64 @rotl(i64 noundef %0, i32 noundef %1) #0 {
  %3 = alloca i64, align 8
  %4 = alloca i32, align 4
  store i64 %0, ptr %3, align 8, !tbaa !18
  store i32 %1, ptr %4, align 4, !tbaa !12
  %5 = load i64, ptr %3, align 8, !tbaa !18
  %6 = load i32, ptr %4, align 4, !tbaa !12
  %7 = zext i32 %6 to i64
  %8 = shl i64 %5, %7
  %9 = load i64, ptr %3, align 8, !tbaa !18
  %10 = and i64 %9, -1
  %11 = load i32, ptr %4, align 4, !tbaa !12
  %12 = sub nsw i32 64, %11
  %13 = zext i32 %12 to i64
  %14 = lshr i64 %10, %13
  %15 = or i64 %8, %14
  ret i64 %15
}

; Function Attrs: nounwind uwtable
define internal i64 @project(i64 noundef %0, i64 noundef %1, ptr noundef %2) #0 {
  %4 = alloca i64, align 8
  %5 = alloca i64, align 8
  %6 = alloca i64, align 8
  %7 = alloca ptr, align 8
  %8 = alloca i64, align 8
  store i64 %0, ptr %5, align 8, !tbaa !10
  store i64 %1, ptr %6, align 8, !tbaa !10
  store ptr %2, ptr %7, align 8, !tbaa !9
  %9 = load i64, ptr %6, align 8, !tbaa !10
  %10 = load i64, ptr %6, align 8, !tbaa !10
  %11 = add i64 %10, 1
  %12 = and i64 %9, %11
  %13 = icmp eq i64 %12, 0
  br i1 %13, label %14, label %18

14:                                               ; preds = %3
  %15 = load i64, ptr %5, align 8, !tbaa !10
  %16 = load i64, ptr %6, align 8, !tbaa !10
  %17 = and i64 %15, %16
  store i64 %17, ptr %4, align 8
  br label %58

18:                                               ; preds = %3
  call void @llvm.lifetime.start.p0(i64 8, ptr %8) #6
  %19 = load i64, ptr %6, align 8, !tbaa !10
  store i64 %19, ptr %8, align 8, !tbaa !10
  %20 = load i64, ptr %8, align 8, !tbaa !10
  %21 = lshr i64 %20, 1
  %22 = load i64, ptr %8, align 8, !tbaa !10
  %23 = or i64 %22, %21
  store i64 %23, ptr %8, align 8, !tbaa !10
  %24 = load i64, ptr %8, align 8, !tbaa !10
  %25 = lshr i64 %24, 2
  %26 = load i64, ptr %8, align 8, !tbaa !10
  %27 = or i64 %26, %25
  store i64 %27, ptr %8, align 8, !tbaa !10
  %28 = load i64, ptr %8, align 8, !tbaa !10
  %29 = lshr i64 %28, 4
  %30 = load i64, ptr %8, align 8, !tbaa !10
  %31 = or i64 %30, %29
  store i64 %31, ptr %8, align 8, !tbaa !10
  %32 = load i64, ptr %8, align 8, !tbaa !10
  %33 = lshr i64 %32, 8
  %34 = load i64, ptr %8, align 8, !tbaa !10
  %35 = or i64 %34, %33
  store i64 %35, ptr %8, align 8, !tbaa !10
  %36 = load i64, ptr %8, align 8, !tbaa !10
  %37 = lshr i64 %36, 16
  %38 = load i64, ptr %8, align 8, !tbaa !10
  %39 = or i64 %38, %37
  store i64 %39, ptr %8, align 8, !tbaa !10
  %40 = load i64, ptr %8, align 8, !tbaa !10
  %41 = lshr i64 %40, 32
  %42 = load i64, ptr %8, align 8, !tbaa !10
  %43 = or i64 %42, %41
  store i64 %43, ptr %8, align 8, !tbaa !10
  br label %44

44:                                               ; preds = %50, %18
  %45 = load i64, ptr %8, align 8, !tbaa !10
  %46 = load i64, ptr %5, align 8, !tbaa !10
  %47 = and i64 %46, %45
  store i64 %47, ptr %5, align 8, !tbaa !10
  %48 = load i64, ptr %6, align 8, !tbaa !10
  %49 = icmp ugt i64 %47, %48
  br i1 %49, label %50, label %56

50:                                               ; preds = %44
  %51 = load ptr, ptr %7, align 8, !tbaa !9
  %52 = getelementptr inbounds nuw %struct.RanState, ptr %51, i32 0, i32 0
  %53 = getelementptr inbounds [4 x i64], ptr %52, i64 0, i64 0
  %54 = call i64 @nextrand(ptr noundef %53)
  %55 = and i64 %54, -1
  store i64 %55, ptr %5, align 8, !tbaa !10
  br label %44

56:                                               ; preds = %44
  %57 = load i64, ptr %5, align 8, !tbaa !10
  store i64 %57, ptr %4, align 8
  call void @llvm.lifetime.end.p0(i64 8, ptr %8) #6
  br label %58

58:                                               ; preds = %56, %14
  %59 = load i64, ptr %4, align 8
  ret i64 %59
}

; Function Attrs: nounwind uwtable
define internal double @I2d(i64 noundef %0) #0 {
  %2 = alloca i64, align 8
  %3 = alloca i64, align 8
  %4 = alloca double, align 8
  store i64 %0, ptr %2, align 8, !tbaa !18
  call void @llvm.lifetime.start.p0(i64 8, ptr %3) #6
  %5 = load i64, ptr %2, align 8, !tbaa !18
  %6 = and i64 %5, -1
  %7 = lshr i64 %6, 11
  store i64 %7, ptr %3, align 8, !tbaa !18
  call void @llvm.lifetime.start.p0(i64 8, ptr %4) #6
  %8 = load i64, ptr %3, align 8, !tbaa !18
  %9 = sitofp i64 %8 to double
  %10 = fmul double %9, 0x3CA0000000000000
  store double %10, ptr %4, align 8, !tbaa !14
  %11 = load i64, ptr %3, align 8, !tbaa !18
  %12 = icmp slt i64 %11, 0
  br i1 %12, label %13, label %16

13:                                               ; preds = %1
  %14 = load double, ptr %4, align 8, !tbaa !14
  %15 = fadd double %14, 1.000000e+00
  store double %15, ptr %4, align 8, !tbaa !14
  br label %16

16:                                               ; preds = %13, %1
  %17 = load double, ptr %4, align 8, !tbaa !14
  call void @llvm.lifetime.end.p0(i64 8, ptr %4) #6
  call void @llvm.lifetime.end.p0(i64 8, ptr %3) #6
  ret double %17
}

; Function Attrs: nounwind uwtable
define internal i64 @nextrand(ptr noundef %0) #0 {
  %2 = alloca ptr, align 8
  %3 = alloca i64, align 8
  %4 = alloca i64, align 8
  %5 = alloca i64, align 8
  %6 = alloca i64, align 8
  %7 = alloca i64, align 8
  store ptr %0, ptr %2, align 8, !tbaa !16
  call void @llvm.lifetime.start.p0(i64 8, ptr %3) #6
  %8 = load ptr, ptr %2, align 8, !tbaa !16
  %9 = getelementptr inbounds i64, ptr %8, i64 0
  %10 = load i64, ptr %9, align 8, !tbaa !18
  store i64 %10, ptr %3, align 8, !tbaa !18
  call void @llvm.lifetime.start.p0(i64 8, ptr %4) #6
  %11 = load ptr, ptr %2, align 8, !tbaa !16
  %12 = getelementptr inbounds i64, ptr %11, i64 1
  %13 = load i64, ptr %12, align 8, !tbaa !18
  store i64 %13, ptr %4, align 8, !tbaa !18
  call void @llvm.lifetime.start.p0(i64 8, ptr %5) #6
  %14 = load ptr, ptr %2, align 8, !tbaa !16
  %15 = getelementptr inbounds i64, ptr %14, i64 2
  %16 = load i64, ptr %15, align 8, !tbaa !18
  %17 = load i64, ptr %3, align 8, !tbaa !18
  %18 = xor i64 %16, %17
  store i64 %18, ptr %5, align 8, !tbaa !18
  call void @llvm.lifetime.start.p0(i64 8, ptr %6) #6
  %19 = load ptr, ptr %2, align 8, !tbaa !16
  %20 = getelementptr inbounds i64, ptr %19, i64 3
  %21 = load i64, ptr %20, align 8, !tbaa !18
  %22 = load i64, ptr %4, align 8, !tbaa !18
  %23 = xor i64 %21, %22
  store i64 %23, ptr %6, align 8, !tbaa !18
  call void @llvm.lifetime.start.p0(i64 8, ptr %7) #6
  %24 = load i64, ptr %4, align 8, !tbaa !18
  %25 = mul i64 %24, 5
  %26 = call i64 @rotl(i64 noundef %25, i32 noundef 7)
  %27 = mul i64 %26, 9
  store i64 %27, ptr %7, align 8, !tbaa !18
  %28 = load i64, ptr %3, align 8, !tbaa !18
  %29 = load i64, ptr %6, align 8, !tbaa !18
  %30 = xor i64 %28, %29
  %31 = load ptr, ptr %2, align 8, !tbaa !16
  %32 = getelementptr inbounds i64, ptr %31, i64 0
  store i64 %30, ptr %32, align 8, !tbaa !18
  %33 = load i64, ptr %4, align 8, !tbaa !18
  %34 = load i64, ptr %5, align 8, !tbaa !18
  %35 = xor i64 %33, %34
  %36 = load ptr, ptr %2, align 8, !tbaa !16
  %37 = getelementptr inbounds i64, ptr %36, i64 1
  store i64 %35, ptr %37, align 8, !tbaa !18
  %38 = load i64, ptr %5, align 8, !tbaa !18
  %39 = load i64, ptr %4, align 8, !tbaa !18
  %40 = shl i64 %39, 17
  %41 = xor i64 %38, %40
  %42 = load ptr, ptr %2, align 8, !tbaa !16
  %43 = getelementptr inbounds i64, ptr %42, i64 2
  store i64 %41, ptr %43, align 8, !tbaa !18
  %44 = load i64, ptr %6, align 8, !tbaa !18
  %45 = call i64 @rotl(i64 noundef %44, i32 noundef 45)
  %46 = load ptr, ptr %2, align 8, !tbaa !16
  %47 = getelementptr inbounds i64, ptr %46, i64 3
  store i64 %45, ptr %47, align 8, !tbaa !18
  %48 = load i64, ptr %7, align 8, !tbaa !18
  call void @llvm.lifetime.end.p0(i64 8, ptr %7) #6
  call void @llvm.lifetime.end.p0(i64 8, ptr %6) #6
  call void @llvm.lifetime.end.p0(i64 8, ptr %5) #6
  call void @llvm.lifetime.end.p0(i64 8, ptr %4) #6
  call void @llvm.lifetime.end.p0(i64 8, ptr %3) #6
  ret i64 %48
}

; Function Attrs: nounwind uwtable
define internal i32 @math_random(ptr noundef %0) #0 {
  %2 = alloca i32, align 4
  %3 = alloca ptr, align 8
  %4 = alloca i64, align 8
  %5 = alloca i64, align 8
  %6 = alloca i64, align 8
  %7 = alloca ptr, align 8
  %8 = alloca i64, align 8
  %9 = alloca i32, align 4
  store ptr %0, ptr %3, align 8, !tbaa !4
  call void @llvm.lifetime.start.p0(i64 8, ptr %4) #6
  call void @llvm.lifetime.start.p0(i64 8, ptr %5) #6
  call void @llvm.lifetime.start.p0(i64 8, ptr %6) #6
  call void @llvm.lifetime.start.p0(i64 8, ptr %7) #6
  %10 = load ptr, ptr %3, align 8, !tbaa !4
  %11 = call ptr @lua_touserdata(ptr noundef %10, i32 noundef -1001001)
  store ptr %11, ptr %7, align 8, !tbaa !9
  call void @llvm.lifetime.start.p0(i64 8, ptr %8) #6
  %12 = load ptr, ptr %7, align 8, !tbaa !9
  %13 = getelementptr inbounds nuw %struct.RanState, ptr %12, i32 0, i32 0
  %14 = getelementptr inbounds [4 x i64], ptr %13, i64 0, i64 0
  %15 = call i64 @nextrand(ptr noundef %14)
  store i64 %15, ptr %8, align 8, !tbaa !18
  %16 = load ptr, ptr %3, align 8, !tbaa !4
  %17 = call i32 @lua_gettop(ptr noundef %16)
  switch i32 %17, label %37 [
    i32 0, label %18
    i32 1, label %22
    i32 2, label %32
  ]

18:                                               ; preds = %1
  %19 = load ptr, ptr %3, align 8, !tbaa !4
  %20 = load i64, ptr %8, align 8, !tbaa !18
  %21 = call double @I2d(i64 noundef %20)
  call void @lua_pushnumber(ptr noundef %19, double noundef %21)
  store i32 1, ptr %2, align 4
  store i32 1, ptr %9, align 4
  br label %65

22:                                               ; preds = %1
  store i64 1, ptr %4, align 8, !tbaa !10
  %23 = load ptr, ptr %3, align 8, !tbaa !4
  %24 = call i64 @luaL_checkinteger(ptr noundef %23, i32 noundef 1)
  store i64 %24, ptr %5, align 8, !tbaa !10
  %25 = load i64, ptr %5, align 8, !tbaa !10
  %26 = icmp eq i64 %25, 0
  br i1 %26, label %27, label %31

27:                                               ; preds = %22
  %28 = load ptr, ptr %3, align 8, !tbaa !4
  %29 = load i64, ptr %8, align 8, !tbaa !18
  %30 = and i64 %29, -1
  call void @lua_pushinteger(ptr noundef %28, i64 noundef %30)
  store i32 1, ptr %2, align 4
  store i32 1, ptr %9, align 4
  br label %65

31:                                               ; preds = %22
  br label %40

32:                                               ; preds = %1
  %33 = load ptr, ptr %3, align 8, !tbaa !4
  %34 = call i64 @luaL_checkinteger(ptr noundef %33, i32 noundef 1)
  store i64 %34, ptr %4, align 8, !tbaa !10
  %35 = load ptr, ptr %3, align 8, !tbaa !4
  %36 = call i64 @luaL_checkinteger(ptr noundef %35, i32 noundef 2)
  store i64 %36, ptr %5, align 8, !tbaa !10
  br label %40

37:                                               ; preds = %1
  %38 = load ptr, ptr %3, align 8, !tbaa !4
  %39 = call i32 (ptr, ptr, ...) @luaL_error(ptr noundef %38, ptr noundef @.str.31)
  store i32 %39, ptr %2, align 4
  store i32 1, ptr %9, align 4
  br label %65

40:                                               ; preds = %32, %31
  %41 = load i64, ptr %4, align 8, !tbaa !10
  %42 = load i64, ptr %5, align 8, !tbaa !10
  %43 = icmp sle i64 %41, %42
  %44 = zext i1 %43 to i32
  %45 = icmp ne i32 %44, 0
  %46 = zext i1 %45 to i32
  %47 = sext i32 %46 to i64
  %48 = call i64 @llvm.expect.i64(i64 %47, i64 1)
  %49 = icmp ne i64 %48, 0
  br i1 %49, label %53, label %50

50:                                               ; preds = %40
  %51 = load ptr, ptr %3, align 8, !tbaa !4
  %52 = call i32 @luaL_argerror(ptr noundef %51, i32 noundef 1, ptr noundef @.str.32)
  br label %53

53:                                               ; preds = %50, %40
  %54 = load i64, ptr %8, align 8, !tbaa !18
  %55 = and i64 %54, -1
  %56 = load i64, ptr %5, align 8, !tbaa !10
  %57 = load i64, ptr %4, align 8, !tbaa !10
  %58 = sub i64 %56, %57
  %59 = load ptr, ptr %7, align 8, !tbaa !9
  %60 = call i64 @project(i64 noundef %55, i64 noundef %58, ptr noundef %59)
  store i64 %60, ptr %6, align 8, !tbaa !10
  %61 = load ptr, ptr %3, align 8, !tbaa !4
  %62 = load i64, ptr %6, align 8, !tbaa !10
  %63 = load i64, ptr %4, align 8, !tbaa !10
  %64 = add nsw i64 %62, %63
  call void @lua_pushinteger(ptr noundef %61, i64 noundef %64)
  store i32 1, ptr %2, align 4
  store i32 1, ptr %9, align 4
  br label %65

65:                                               ; preds = %53, %37, %27, %18
  call void @llvm.lifetime.end.p0(i64 8, ptr %8) #6
  call void @llvm.lifetime.end.p0(i64 8, ptr %7) #6
  call void @llvm.lifetime.end.p0(i64 8, ptr %6) #6
  call void @llvm.lifetime.end.p0(i64 8, ptr %5) #6
  call void @llvm.lifetime.end.p0(i64 8, ptr %4) #6
  %66 = load i32, ptr %2, align 4
  ret i32 %66
}