; Function Attrs: nounwind uwtable
define internal i32 @math_random(ptr noundef %0) #0 {
  %2 = tail call ptr @lua_touserdata(ptr noundef %0, i32 noundef -1001001) #6
  %3 = load i64, ptr %2, align 8, !tbaa !4
  %4 = getelementptr inbounds nuw i8, ptr %2, i64 8
  %5 = load i64, ptr %4, align 8, !tbaa !4
  %6 = getelementptr inbounds nuw i8, ptr %2, i64 16
  %7 = load i64, ptr %6, align 8, !tbaa !4
  %8 = xor i64 %7, %3
  %9 = getelementptr inbounds nuw i8, ptr %2, i64 24
  %10 = load i64, ptr %9, align 8, !tbaa !4
  %11 = xor i64 %10, %5
  %12 = mul i64 %5, 5
  %13 = mul i64 %5, 640
  %14 = lshr i64 %12, 57
  %15 = or disjoint i64 %14, %13
  %16 = mul i64 %15, 9
  %17 = xor i64 %11, %3
  store i64 %17, ptr %2, align 8, !tbaa !4
  %18 = xor i64 %8, %5
  store i64 %18, ptr %4, align 8, !tbaa !4
  %19 = shl i64 %5, 17
  %20 = xor i64 %8, %19
  store i64 %20, ptr %6, align 8, !tbaa !4
  %21 = tail call i64 @llvm.fshl.i64(i64 %11, i64 %11, i64 45)
  store i64 %21, ptr %9, align 8, !tbaa !4
  %22 = tail call i32 @lua_gettop(ptr noundef %0) #6
  switch i32 %22, label %34 [
    i32 0, label %23
    i32 1, label %27
    i32 2, label %31
  ]

23:                                               ; preds = %1
  %24 = lshr i64 %16, 11
  %25 = uitofp nneg i64 %24 to double
  %26 = fmul double %25, 0x3CA0000000000000
  tail call void @lua_pushnumber(ptr noundef %0, double noundef %26) #6
  br label %81

27:                                               ; preds = %1
  %28 = tail call i64 @luaL_checkinteger(ptr noundef %0, i32 noundef 1) #6
  %29 = icmp eq i64 %28, 0
  br i1 %29, label %30, label %36

30:                                               ; preds = %27
  tail call void @lua_pushinteger(ptr noundef %0, i64 noundef %16) #6
  br label %81

31:                                               ; preds = %1
  %32 = tail call i64 @luaL_checkinteger(ptr noundef %0, i32 noundef 1) #6
  %33 = tail call i64 @luaL_checkinteger(ptr noundef %0, i32 noundef 2) #6
  br label %36

34:                                               ; preds = %1
  %35 = tail call i32 (ptr, ptr, ...) @luaL_error(ptr noundef %0, ptr noundef nonnull @.str.31) #6
  br label %81

36:                                               ; preds = %27, %31
  %.023 = phi i64 [ %33, %31 ], [ %28, %27 ]
  %.022 = phi i64 [ %32, %31 ], [ 1, %27 ]
  %.not = icmp sgt i64 %.022, %.023
  br i1 %.not, label %37, label %39, !prof !10

37:                                               ; preds = %36
  %38 = tail call i32 @luaL_argerror(ptr noundef %0, i32 noundef 1, ptr noundef nonnull @.str.32) #6
  br label %39

39:                                               ; preds = %37, %36
  %40 = sub i64 %.023, %.022
  %41 = add i64 %40, 1
  %42 = and i64 %41, %40
  %43 = icmp eq i64 %42, 0
  br i1 %43, label %44, label %46

44:                                               ; preds = %39
  %45 = and i64 %40, %16
  br label %project.exit

46:                                               ; preds = %39
  %47 = lshr i64 %40, 1
  %48 = or i64 %47, %40
  %49 = lshr i64 %48, 2
  %50 = or i64 %49, %48
  %51 = lshr i64 %50, 4
  %52 = or i64 %51, %50
  %53 = lshr i64 %52, 8
  %54 = or i64 %53, %52
  %55 = lshr i64 %54, 16
  %56 = or i64 %55, %54
  %57 = lshr i64 %56, 32
  %58 = or i64 %57, %56
  %59 = and i64 %58, %16
  %60 = icmp ugt i64 %59, %40
  br i1 %60, label %.lr.ph.i, label %project.exit

.lr.ph.i:                                         ; preds = %46
  %.promoted.i = load i64, ptr %2, align 8, !tbaa !4
  %.promoted25.i = load i64, ptr %4, align 8, !tbaa !4
  %.promoted27.i = load i64, ptr %6, align 8, !tbaa !4
  %.promoted29.i = load i64, ptr %9, align 8, !tbaa !4
  br label %61

61:                                               ; preds = %61, %.lr.ph.i
  %62 = phi i64 [ %.promoted29.i, %.lr.ph.i ], [ %77, %61 ]
  %63 = phi i64 [ %.promoted27.i, %.lr.ph.i ], [ %76, %61 ]
  %64 = phi i64 [ %.promoted25.i, %.lr.ph.i ], [ %74, %61 ]
  %65 = phi i64 [ %.promoted.i, %.lr.ph.i ], [ %73, %61 ]
  %66 = xor i64 %65, %63
  %67 = xor i64 %64, %62
  %68 = mul i64 %64, 5
  %69 = mul i64 %64, 640
  %70 = lshr i64 %68, 57
  %71 = or disjoint i64 %70, %69
  %72 = mul i64 %71, 9
  %73 = xor i64 %67, %65
  %74 = xor i64 %66, %64
  %75 = shl i64 %64, 17
  %76 = xor i64 %66, %75
  %77 = tail call i64 @llvm.fshl.i64(i64 %67, i64 %67, i64 45)
  %78 = and i64 %72, %58
  %79 = icmp ugt i64 %78, %40
  br i1 %79, label %61, label %..loopexit_crit_edge.i

..loopexit_crit_edge.i:                           ; preds = %61
  store i64 %73, ptr %2, align 8, !tbaa !4
  store i64 %74, ptr %4, align 8, !tbaa !4
  store i64 %76, ptr %6, align 8, !tbaa !4
  store i64 %77, ptr %9, align 8, !tbaa !4
  br label %project.exit

project.exit:                                     ; preds = %44, %46, %..loopexit_crit_edge.i
  %.0.i = phi i64 [ %45, %44 ], [ %78, %..loopexit_crit_edge.i ], [ %59, %46 ]
  %80 = add nsw i64 %.0.i, %.022
  tail call void @lua_pushinteger(ptr noundef %0, i64 noundef %80) #6
  br label %81

81:                                               ; preds = %project.exit, %34, %30, %23
  %.0 = phi i32 [ %35, %34 ], [ 1, %project.exit ], [ 1, %30 ], [ 1, %23 ]
  ret i32 %.0
}